target datalayout = "e-m:e-p270:32:32-p271:32:32-p272:64:64-i64:64-i128:128-f80:128-n8:16:32:64-S128"
target triple = "x86_64-pc-linux-gnu"

%"struct.Type::TypeInfo" = type { i32, i8, ptr, i8, i32, i32 }
%class.StartNode = type { %class.MultiNode.base, ptr }
%class.MultiNode.base = type { %class.Node.base }
%class.Node.base = type <{ ptr, ptr, ptr, i32, i32, i32, i32, i32, i32, i32 }>
%class.ProjNode = type <{ %class.Node.base, i32, i8, [7 x i8] }>
%class.TypeTuple = type { %class.Type.base, i32, ptr }
%class.Type.base = type <{ ptr, ptr, i32 }>
%class.Type = type <{ ptr, ptr, i32, [4 x i8] }>
%class.Node = type <{ ptr, ptr, ptr, i32, i32, i32, i32, i32, i32, i32, [4 x i8] }>

@_ZN4Type10_type_infoE = external global [0 x %"struct.Type::TypeInfo"], align 8

; Function Attrs: mustprogress nounwind uwtable
define linkonce_odr hidden noundef i32 @_ZNK4Type9ideal_regEv(ptr noundef nonnull align 8 dereferenceable(20) %0) #1 comdat align 2 {
  %2 = alloca ptr, align 8
  store ptr %0, ptr %2, align 8
  %3 = load ptr, ptr %2, align 8
  %4 = getelementptr inbounds %class.Type, ptr %3, i32 0, i32 2
  %5 = load i32, ptr %4, align 8
  %6 = zext i32 %5 to i64
  %7 = getelementptr inbounds [0 x %"struct.Type::TypeInfo"], ptr @_ZN4Type10_type_infoE, i64 0, i64 %6
  %8 = getelementptr inbounds %"struct.Type::TypeInfo", ptr %7, i32 0, i32 4
  %9 = load i32, ptr %8, align 4
  ret i32 %9
}

; Function Attrs: mustprogress nounwind uwtable
define linkonce_odr hidden noundef ptr @_ZNK9TypeTuple8field_atEj(ptr noundef nonnull align 8 dereferenceable(32) %0, i32 noundef %1) #1 comdat align 2 {
  %3 = alloca ptr, align 8
  %4 = alloca i32, align 4
  store ptr %0, ptr %3, align 8
  store i32 %1, ptr %4, align 4
  %5 = load ptr, ptr %3, align 8
  %6 = getelementptr inbounds %class.TypeTuple, ptr %5, i32 0, i32 2
  %7 = load ptr, ptr %6, align 8
  %8 = load i32, ptr %4, align 4
  %9 = zext i32 %8 to i64
  %10 = getelementptr inbounds ptr, ptr %7, i64 %9
  %11 = load ptr, ptr %10, align 8
  ret ptr %11
}

; Function Attrs: mustprogress nounwind uwtable
define linkonce_odr hidden noundef ptr @_ZNK4Node8as_StartEv(ptr noundef nonnull align 8 dereferenceable(52) %0) #1 comdat align 2 {
  %2 = alloca ptr, align 8
  store ptr %0, ptr %2, align 8
  %3 = load ptr, ptr %2, align 8
  ret ptr %3
}

; Function Attrs: mustprogress nounwind uwtable
define linkonce_odr hidden noundef ptr @_ZNK4Node2inEj(ptr noundef nonnull align 8 dereferenceable(52) %0, i32 noundef %1) #1 comdat align 2 {
  %3 = alloca ptr, align 8
  %4 = alloca i32, align 4
  store ptr %0, ptr %3, align 8
  store i32 %1, ptr %4, align 4
  %5 = load ptr, ptr %3, align 8
  %6 = getelementptr inbounds %class.Node, ptr %5, i32 0, i32 1
  %7 = load ptr, ptr %6, align 8
  %8 = load i32, ptr %4, align 4
  %9 = zext i32 %8 to i64
  %10 = getelementptr inbounds ptr, ptr %7, i64 %9
  %11 = load ptr, ptr %10, align 8
  ret ptr %11
}

; Function Attrs: mustprogress nounwind uwtable
define hidden noundef i32 @_ZNK8ParmNode9ideal_regEv(ptr noundef nonnull align 8 dereferenceable(57) %0) unnamed_addr #1 align 2 {
  %2 = alloca i32, align 4
  %3 = alloca ptr, align 8
  %4 = alloca ptr, align 8
  store ptr %0, ptr %3, align 8
  %5 = load ptr, ptr %3, align 8
  %6 = getelementptr inbounds %class.ProjNode, ptr %5, i32 0, i32 1
  %7 = load i32, ptr %6, align 4
  switch i32 %7, label %10 [
    i32 0, label %8
    i32 1, label %8
    i32 2, label %8
    i32 3, label %9
    i32 4, label %9
    i32 5, label %11
  ]

8:                                                ; preds = %1, %1, %1
  store i32 0, ptr %2, align 4
  br label %21

9:                                                ; preds = %1, %1
  store i32 4, ptr %2, align 4
  br label %21

10:                                               ; preds = %1
  br label %11

11:                                               ; preds = %10, %1
  %12 = call noundef ptr @_ZNK4Node2inEj(ptr noundef nonnull align 8 dereferenceable(52) %5, i32 noundef 0)
  %13 = call noundef ptr @_ZNK4Node8as_StartEv(ptr noundef nonnull align 8 dereferenceable(52) %12)
  %14 = getelementptr inbounds %class.StartNode, ptr %13, i32 0, i32 1
  %15 = load ptr, ptr %14, align 8
  %16 = getelementptr inbounds %class.ProjNode, ptr %5, i32 0, i32 1
  %17 = load i32, ptr %16, align 4
  %18 = call noundef ptr @_ZNK9TypeTuple8field_atEj(ptr noundef nonnull align 8 dereferenceable(32) %15, i32 noundef %17)
  store ptr %18, ptr %4, align 8
  %19 = load ptr, ptr %4, align 8
  %20 = call noundef i32 @_ZNK4Type9ideal_regEv(ptr noundef nonnull align 8 dereferenceable(20) %19)
  store i32 %20, ptr %2, align 4
  br label %21

21:                                               ; preds = %11, %9, %8
  %22 = load i32, ptr %2, align 4
  ret i32 %22
}