; Function Attrs: mustprogress nofree norecurse nosync nounwind willreturn memory(read, inaccessiblemem: none) uwtable
define hidden noundef i32 @_ZNK8ParmNode9ideal_regEv(ptr nocapture noundef nonnull readonly align 8 dereferenceable(57) %0) unnamed_addr #4 align 2 {
  %2 = getelementptr inbounds i8, ptr %0, i64 52
  %3 = load i32, ptr %2, align 4
  %4 = icmp ult i32 %3, 5
  br i1 %4, label %switch.lookup, label %5

5:                                                ; preds = %1
  %6 = getelementptr inbounds i8, ptr %0, i64 8
  %7 = load ptr, ptr %6, align 8
  %8 = load ptr, ptr %7, align 8
  %9 = getelementptr inbounds i8, ptr %8, i64 56
  %10 = load ptr, ptr %9, align 8
  %11 = getelementptr inbounds i8, ptr %10, i64 24
  %12 = load ptr, ptr %11, align 8
  %13 = zext i32 %3 to i64
  %14 = getelementptr inbounds ptr, ptr %12, i64 %13
  %15 = load ptr, ptr %14, align 8
  %16 = getelementptr inbounds i8, ptr %15, i64 16
  %17 = load i32, ptr %16, align 8
  %18 = zext i32 %17 to i64
  %19 = getelementptr inbounds [0 x %"struct.Type::TypeInfo"], ptr @_ZN4Type10_type_infoE, i64 0, i64 %18, i32 4
  br label %21

switch.lookup:                                    ; preds = %1
  %20 = zext nneg i32 %3 to i64
  %switch.gep = getelementptr inbounds [5 x i32], ptr @switch.table._ZNK8ParmNode9ideal_regEv, i64 0, i64 %20
  br label %21

21:                                               ; preds = %switch.lookup, %5
  %switch.gep.sink = phi ptr [ %switch.gep, %switch.lookup ], [ %19, %5 ]
  %switch.load = load i32, ptr %switch.gep.sink, align 4
  ret i32 %switch.load
}